; Function Attrs: nounwind uwtable
define internal noundef i32 @lj_cf_jit_flush(ptr noundef %0) #0 {
  %2 = getelementptr inbounds nuw i8, ptr %0, i64 32
  %3 = load ptr, ptr %2, align 8, !tbaa !33
  %4 = getelementptr inbounds nuw i8, ptr %0, i64 40
  %5 = load ptr, ptr %4, align 8, !tbaa !32
  %6 = icmp ult ptr %3, %5
  br i1 %6, label %7, label %13

7:                                                ; preds = %1
  %8 = load i64, ptr %3, align 8, !tbaa !34
  %9 = icmp ult i64 %8, -1829587348619264
  br i1 %9, label %10, label %13

10:                                               ; preds = %7
  %11 = tail call i32 @lj_lib_checkint(ptr noundef nonnull %0, i32 noundef 1) #8
  %12 = tail call i32 @luaJIT_setmode(ptr noundef nonnull %0, i32 noundef %11, i32 noundef 517) #8
  br label %setjitmode.exit

13:                                               ; preds = %7, %1
  %14 = icmp eq ptr %3, %5
  br i1 %14, label %28, label %15

15:                                               ; preds = %13
  %16 = load i64, ptr %3, align 8, !tbaa !34
  %17 = icmp eq i64 %16, -1
  br i1 %17, label %28, label %18

18:                                               ; preds = %15
  %19 = ashr i64 %16, 47
  switch i64 %19, label %34 [
    i64 -9, label %20
    i64 -8, label %20
    i64 -3, label %.fold.split.i
  ]

.fold.split.i:                                    ; preds = %18
  br label %20

20:                                               ; preds = %.fold.split.i, %18, %18
  %.1.i = phi i32 [ 1, %18 ], [ 1, %18 ], [ 0, %.fold.split.i ]
  %21 = getelementptr inbounds nuw i8, ptr %3, i64 8
  %22 = icmp ult ptr %21, %5
  br i1 %22, label %23, label %28

23:                                               ; preds = %20
  %24 = load i64, ptr %21, align 8, !tbaa !34
  %25 = ashr i64 %24, 47
  %.off.i = add nsw i64 %25, 3
  %switch.i = icmp ult i64 %.off.i, 2
  br i1 %switch.i, label %26, label %28

26:                                               ; preds = %23
  %.mask.i = and i64 %24, -140737488355328
  %.not.i = icmp eq i64 %.mask.i, -281474976710656
  %27 = select i1 %.not.i, i32 516, i32 515
  br label %28

28:                                               ; preds = %20, %23, %26, %15, %13
  %.019.i = phi i32 [ %27, %26 ], [ 512, %15 ], [ 512, %13 ], [ 514, %23 ], [ 514, %20 ]
  %.0.i = phi i32 [ %.1.i, %26 ], [ 0, %15 ], [ 0, %13 ], [ %.1.i, %23 ], [ %.1.i, %20 ]
  %29 = tail call i32 @luaJIT_setmode(ptr noundef nonnull %0, i32 noundef %.0.i, i32 noundef %.019.i) #8
  %.not25.i = icmp eq i32 %29, 1
  br i1 %.not25.i, label %setjitmode.exit, label %30

30:                                               ; preds = %28
  %31 = and i32 %.019.i, 7
  %32 = icmp eq i32 %31, 0
  br i1 %32, label %33, label %34

33:                                               ; preds = %30
  tail call void @lj_err_caller(ptr noundef nonnull %0, i32 noundef 2074) #9
  unreachable

34:                                               ; preds = %30, %18
  tail call void @lj_err_argt(ptr noundef nonnull %0, i32 noundef 1, i32 noundef 6) #9
  unreachable

setjitmode.exit:                                  ; preds = %28, %10
  ret i32 0
}